target datalayout = "e-m:e-p270:32:32-p271:32:32-p272:64:64-i64:64-i128:128-f80:128-n8:16:32:64-S128"
target triple = "x86_64-pc-linux-gnu"

%struct.lean_object = type { i32, i32 }

@l_Lean_brecOnSuffix = external global ptr, align 8
@l___private_Lean_Compiler_InlineAttrs_0__Lean_Compiler_isValidMacroInline___lambda__2___closed__3 = internal global ptr null, align 8
@l___private_Lean_Compiler_InlineAttrs_0__Lean_Compiler_isValidMacroInline___lambda__2___closed__5 = internal global ptr null, align 8

; Function Attrs: inlinehint nounwind uwtable
define internal zeroext i1 @lean_is_st(ptr noundef %0) #3 {
  %2 = alloca ptr, align 8
  store ptr %0, ptr %2, align 8, !tbaa !4
  %3 = load ptr, ptr %2, align 8, !tbaa !4
  %4 = getelementptr inbounds nuw %struct.lean_object, ptr %3, i32 0, i32 0
  %5 = load i32, ptr %4, align 4, !tbaa !15
  %6 = icmp sgt i32 %5, 0
  ret i1 %6
}

; Function Attrs: inlinehint nounwind uwtable
define internal void @lean_inc_ref(ptr noundef %0) #3 {
  %2 = alloca ptr, align 8
  store ptr %0, ptr %2, align 8, !tbaa !4
  %3 = load ptr, ptr %2, align 8, !tbaa !4
  %4 = call zeroext i1 @lean_is_st(ptr noundef %3)
  %5 = zext i1 %4 to i64
  %6 = call i64 @llvm.expect.i64(i64 %5, i64 1)
  %7 = icmp ne i64 %6, 0
  br i1 %7, label %8, label %13

8:                                                ; preds = %1
  %9 = load ptr, ptr %2, align 8, !tbaa !4
  %10 = getelementptr inbounds nuw %struct.lean_object, ptr %9, i32 0, i32 0
  %11 = load i32, ptr %10, align 4, !tbaa !15
  %12 = add i32 %11, 1
  store i32 %12, ptr %10, align 4, !tbaa !15
  br label %21

13:                                               ; preds = %1
  %14 = load ptr, ptr %2, align 8, !tbaa !4
  %15 = getelementptr inbounds nuw %struct.lean_object, ptr %14, i32 0, i32 0
  %16 = load i32, ptr %15, align 4, !tbaa !15
  %17 = icmp ne i32 %16, 0
  br i1 %17, label %18, label %20

18:                                               ; preds = %13
  %19 = load ptr, ptr %2, align 8, !tbaa !4
  call void @lean_inc_ref_cold(ptr noundef %19)
  br label %20

20:                                               ; preds = %18, %13
  br label %21

21:                                               ; preds = %20, %8
  ret void
}

; Function Attrs: alwaysinline nounwind uwtable
define internal void @lean_dec_ref(ptr noundef %0) #0 {
  %2 = alloca ptr, align 8
  store ptr %0, ptr %2, align 8, !tbaa !4
  %3 = load ptr, ptr %2, align 8, !tbaa !4
  %4 = getelementptr inbounds nuw %struct.lean_object, ptr %3, i32 0, i32 0
  %5 = load i32, ptr %4, align 4, !tbaa !15
  %6 = icmp sgt i32 %5, 1
  %7 = zext i1 %6 to i32
  %8 = sext i32 %7 to i64
  %9 = call i64 @llvm.expect.i64(i64 %8, i64 1)
  %10 = icmp ne i64 %9, 0
  br i1 %10, label %11, label %16

11:                                               ; preds = %1
  %12 = load ptr, ptr %2, align 8, !tbaa !4
  %13 = getelementptr inbounds nuw %struct.lean_object, ptr %12, i32 0, i32 0
  %14 = load i32, ptr %13, align 4, !tbaa !15
  %15 = add i32 %14, -1
  store i32 %15, ptr %13, align 4, !tbaa !15
  br label %24

16:                                               ; preds = %1
  %17 = load ptr, ptr %2, align 8, !tbaa !4
  %18 = getelementptr inbounds nuw %struct.lean_object, ptr %17, i32 0, i32 0
  %19 = load i32, ptr %18, align 4, !tbaa !15
  %20 = icmp ne i32 %19, 0
  br i1 %20, label %21, label %23

21:                                               ; preds = %16
  %22 = load ptr, ptr %2, align 8, !tbaa !4
  call void @lean_dec_ref_cold(ptr noundef %22)
  br label %23

23:                                               ; preds = %21, %16
  br label %24

24:                                               ; preds = %23, %11
  ret void
}

; Function Attrs: alwaysinline nounwind uwtable
define internal zeroext i1 @lean_is_scalar(ptr noundef %0) #0 {
  %2 = alloca ptr, align 8
  store ptr %0, ptr %2, align 8, !tbaa !4
  %3 = load ptr, ptr %2, align 8, !tbaa !4
  %4 = ptrtoint ptr %3 to i64
  %5 = and i64 %4, 1
  %6 = icmp eq i64 %5, 1
  ret i1 %6
}

; Function Attrs: alwaysinline nounwind uwtable
define internal void @lean_inc(ptr noundef %0) #0 {
  %2 = alloca ptr, align 8
  store ptr %0, ptr %2, align 8, !tbaa !4
  %3 = load ptr, ptr %2, align 8, !tbaa !4
  %4 = call zeroext i1 @lean_is_scalar(ptr noundef %3)
  br i1 %4, label %7, label %5

5:                                                ; preds = %1
  %6 = load ptr, ptr %2, align 8, !tbaa !4
  call void @lean_inc_ref(ptr noundef %6)
  br label %7

7:                                                ; preds = %5, %1
  ret void
}

; Function Attrs: alwaysinline nounwind uwtable
define internal void @lean_dec(ptr noundef %0) #0 {
  %2 = alloca ptr, align 8
  store ptr %0, ptr %2, align 8, !tbaa !4
  %3 = load ptr, ptr %2, align 8, !tbaa !4
  %4 = call zeroext i1 @lean_is_scalar(ptr noundef %3)
  br i1 %4, label %7, label %5

5:                                                ; preds = %1
  %6 = load ptr, ptr %2, align 8, !tbaa !4
  call void @lean_dec_ref(ptr noundef %6)
  br label %7

7:                                                ; preds = %5, %1
  ret void
}

; Function Attrs: nounwind uwtable
define zeroext i8 @l___private_Lean_Compiler_InlineAttrs_0__Lean_Compiler_isValidMacroInline___lambda__2(ptr noundef %0, ptr noundef %1, ptr noundef %2) #1 {
  %4 = alloca i8, align 1
  %5 = alloca ptr, align 8
  %6 = alloca ptr, align 8
  %7 = alloca ptr, align 8
  %8 = alloca i8, align 1
  %9 = alloca i8, align 1
  %10 = alloca i32, align 4
  %11 = alloca ptr, align 8
  %12 = alloca ptr, align 8
  %13 = alloca i8, align 1
  %14 = alloca ptr, align 8
  %15 = alloca i8, align 1
  %16 = alloca ptr, align 8
  %17 = alloca ptr, align 8
  %18 = alloca i8, align 1
  %19 = alloca i8, align 1
  %20 = alloca i8, align 1
  store ptr %0, ptr %5, align 8, !tbaa !4
  store ptr %1, ptr %6, align 8, !tbaa !4
  store ptr %2, ptr %7, align 8, !tbaa !4
  br label %21

21:                                               ; preds = %3
  call void @llvm.lifetime.start.p0(i64 1, ptr %8) #7
  %22 = load ptr, ptr %7, align 8, !tbaa !4
  %23 = call zeroext i8 @l_Lean_Expr_isConst(ptr noundef %22)
  store i8 %23, ptr %8, align 1, !tbaa !8
  %24 = load i8, ptr %8, align 1, !tbaa !8
  %25 = zext i8 %24 to i32
  %26 = icmp eq i32 %25, 0
  br i1 %26, label %27, label %31

27:                                               ; preds = %21
  call void @llvm.lifetime.start.p0(i64 1, ptr %9) #7
  %28 = load ptr, ptr %6, align 8, !tbaa !4
  call void @lean_dec(ptr noundef %28)
  %29 = load ptr, ptr %5, align 8, !tbaa !4
  call void @lean_dec(ptr noundef %29)
  store i8 0, ptr %9, align 1, !tbaa !8
  %30 = load i8, ptr %9, align 1, !tbaa !8
  store i8 %30, ptr %4, align 1
  store i32 1, ptr %10, align 4
  call void @llvm.lifetime.end.p0(i64 1, ptr %9) #7
  br label %72

31:                                               ; preds = %21
  call void @llvm.lifetime.start.p0(i64 8, ptr %11) #7
  call void @llvm.lifetime.start.p0(i64 8, ptr %12) #7
  call void @llvm.lifetime.start.p0(i64 1, ptr %13) #7
  %32 = load ptr, ptr %7, align 8, !tbaa !4
  %33 = call ptr @l_Lean_Expr_constName_x21(ptr noundef %32)
  store ptr %33, ptr %11, align 8, !tbaa !4
  %34 = load ptr, ptr @l_Lean_brecOnSuffix, align 8, !tbaa !4
  store ptr %34, ptr %12, align 8, !tbaa !4
  %35 = load ptr, ptr %11, align 8, !tbaa !4
  call void @lean_inc(ptr noundef %35)
  %36 = load ptr, ptr %5, align 8, !tbaa !4
  %37 = load ptr, ptr %11, align 8, !tbaa !4
  %38 = load ptr, ptr %12, align 8, !tbaa !4
  %39 = call zeroext i8 @l_Lean_isAuxRecursorWithSuffix(ptr noundef %36, ptr noundef %37, ptr noundef %38)
  store i8 %39, ptr %13, align 1, !tbaa !8
  %40 = load i8, ptr %13, align 1, !tbaa !8
  %41 = zext i8 %40 to i32
  %42 = icmp eq i32 %41, 0
  br i1 %42, label %43, label %67

43:                                               ; preds = %31
  call void @llvm.lifetime.start.p0(i64 8, ptr %14) #7
  call void @llvm.lifetime.start.p0(i64 1, ptr %15) #7
  %44 = load ptr, ptr @l___private_Lean_Compiler_InlineAttrs_0__Lean_Compiler_isValidMacroInline___lambda__2___closed__3, align 8, !tbaa !4
  store ptr %44, ptr %14, align 8, !tbaa !4
  %45 = load ptr, ptr %11, align 8, !tbaa !4
  %46 = load ptr, ptr %14, align 8, !tbaa !4
  %47 = call zeroext i8 @lean_name_eq(ptr noundef %45, ptr noundef %46)
  store i8 %47, ptr %15, align 1, !tbaa !8
  %48 = load i8, ptr %15, align 1, !tbaa !8
  %49 = zext i8 %48 to i32
  %50 = icmp eq i32 %49, 0
  br i1 %50, label %51, label %62

51:                                               ; preds = %43
  call void @llvm.lifetime.start.p0(i64 8, ptr %16) #7
  call void @llvm.lifetime.start.p0(i64 8, ptr %17) #7
  call void @llvm.lifetime.start.p0(i64 1, ptr %18) #7
  %52 = load ptr, ptr @l___private_Lean_Compiler_InlineAttrs_0__Lean_Compiler_isValidMacroInline___lambda__2___closed__5, align 8, !tbaa !4
  store ptr %52, ptr %16, align 8, !tbaa !4
  %53 = load ptr, ptr %6, align 8, !tbaa !4
  %54 = load ptr, ptr %16, align 8, !tbaa !4
  %55 = call ptr @l_Lean_Name_append(ptr noundef %53, ptr noundef %54)
  store ptr %55, ptr %17, align 8, !tbaa !4
  %56 = load ptr, ptr %11, align 8, !tbaa !4
  %57 = load ptr, ptr %17, align 8, !tbaa !4
  %58 = call zeroext i8 @lean_name_eq(ptr noundef %56, ptr noundef %57)
  store i8 %58, ptr %18, align 1, !tbaa !8
  %59 = load ptr, ptr %17, align 8, !tbaa !4
  call void @lean_dec(ptr noundef %59)
  %60 = load ptr, ptr %11, align 8, !tbaa !4
  call void @lean_dec(ptr noundef %60)
  %61 = load i8, ptr %18, align 1, !tbaa !8
  store i8 %61, ptr %4, align 1
  store i32 1, ptr %10, align 4
  call void @llvm.lifetime.end.p0(i64 1, ptr %18) #7
  call void @llvm.lifetime.end.p0(i64 8, ptr %17) #7
  call void @llvm.lifetime.end.p0(i64 8, ptr %16) #7
  br label %66

62:                                               ; preds = %43
  call void @llvm.lifetime.start.p0(i64 1, ptr %19) #7
  %63 = load ptr, ptr %11, align 8, !tbaa !4
  call void @lean_dec(ptr noundef %63)
  %64 = load ptr, ptr %6, align 8, !tbaa !4
  call void @lean_dec(ptr noundef %64)
  store i8 1, ptr %19, align 1, !tbaa !8
  %65 = load i8, ptr %19, align 1, !tbaa !8
  store i8 %65, ptr %4, align 1
  store i32 1, ptr %10, align 4
  call void @llvm.lifetime.end.p0(i64 1, ptr %19) #7
  br label %66

66:                                               ; preds = %62, %51
  call void @llvm.lifetime.end.p0(i64 1, ptr %15) #7
  call void @llvm.lifetime.end.p0(i64 8, ptr %14) #7
  br label %71

67:                                               ; preds = %31
  call void @llvm.lifetime.start.p0(i64 1, ptr %20) #7
  %68 = load ptr, ptr %11, align 8, !tbaa !4
  call void @lean_dec(ptr noundef %68)
  %69 = load ptr, ptr %6, align 8, !tbaa !4
  call void @lean_dec(ptr noundef %69)
  store i8 1, ptr %20, align 1, !tbaa !8
  %70 = load i8, ptr %20, align 1, !tbaa !8
  store i8 %70, ptr %4, align 1
  store i32 1, ptr %10, align 4
  call void @llvm.lifetime.end.p0(i64 1, ptr %20) #7
  br label %71

71:                                               ; preds = %67, %66
  call void @llvm.lifetime.end.p0(i64 1, ptr %13) #7
  call void @llvm.lifetime.end.p0(i64 8, ptr %12) #7
  call void @llvm.lifetime.end.p0(i64 8, ptr %11) #7
  br label %72

72:                                               ; preds = %71, %27
  call void @llvm.lifetime.end.p0(i64 1, ptr %8) #7
  %73 = load i8, ptr %4, align 1
  ret i8 %73
}