; Function Attrs: nounwind uwtable
define zeroext i8 @l___private_Lean_Compiler_InlineAttrs_0__Lean_Compiler_isValidMacroInline___lambda__2(ptr noundef %0, ptr noundef %1, ptr noundef %2) local_unnamed_addr #1 {
  %4 = tail call zeroext i8 @l_Lean_Expr_isConst(ptr noundef %2) #7
  %5 = icmp eq i8 %4, 0
  br i1 %5, label %6, label %25

6:                                                ; preds = %3
  %7 = ptrtoint ptr %1 to i64
  %8 = and i64 %7, 1
  %.not54 = icmp eq i64 %8, 0
  br i1 %.not54, label %9, label %lean_dec.exit33

9:                                                ; preds = %6
  %10 = load i32, ptr %1, align 4, !tbaa !4
  %11 = icmp sgt i32 %10, 1
  br i1 %11, label %12, label %14, !prof !9

12:                                               ; preds = %9
  %13 = add nsw i32 %10, -1
  store i32 %13, ptr %1, align 4, !tbaa !4
  br label %lean_dec.exit33

14:                                               ; preds = %9
  %.not.i = icmp eq i32 %10, 0
  br i1 %.not.i, label %lean_dec.exit33, label %15

15:                                               ; preds = %14
  tail call void @lean_dec_ref_cold(ptr noundef nonnull %1) #7
  br label %lean_dec.exit33

lean_dec.exit33:                                  ; preds = %15, %14, %12, %6
  %16 = ptrtoint ptr %0 to i64
  %17 = and i64 %16, 1
  %.not55 = icmp eq i64 %17, 0
  br i1 %.not55, label %18, label %lean_dec.exit32

18:                                               ; preds = %lean_dec.exit33
  %19 = load i32, ptr %0, align 4, !tbaa !4
  %20 = icmp sgt i32 %19, 1
  br i1 %20, label %21, label %23, !prof !9

21:                                               ; preds = %18
  %22 = add nsw i32 %19, -1
  store i32 %22, ptr %0, align 4, !tbaa !4
  br label %lean_dec.exit32

23:                                               ; preds = %18
  %.not.i34 = icmp eq i32 %19, 0
  br i1 %.not.i34, label %lean_dec.exit32, label %24

24:                                               ; preds = %23
  tail call void @lean_dec_ref_cold(ptr noundef nonnull %0) #7
  br label %lean_dec.exit32

25:                                               ; preds = %3
  %26 = tail call ptr @l_Lean_Expr_constName_x21(ptr noundef %2) #7
  %27 = load ptr, ptr @l_Lean_brecOnSuffix, align 8, !tbaa !10
  %28 = ptrtoint ptr %26 to i64
  %29 = and i64 %28, 1
  %.not = icmp eq i64 %29, 0
  br i1 %.not, label %30, label %lean_inc.exit.thread

30:                                               ; preds = %25
  %.val.i = load i32, ptr %26, align 4, !tbaa !4
  %31 = icmp sgt i32 %.val.i, 0
  br i1 %31, label %32, label %34, !prof !9

32:                                               ; preds = %30
  %33 = add nuw i32 %.val.i, 1
  store i32 %33, ptr %26, align 4, !tbaa !4
  br label %lean_inc.exit

34:                                               ; preds = %30
  %.not.i48 = icmp eq i32 %.val.i, 0
  br i1 %.not.i48, label %lean_inc.exit, label %35

35:                                               ; preds = %34
  tail call void @lean_inc_ref_cold(ptr noundef nonnull %26) #7
  br label %lean_inc.exit

lean_inc.exit:                                    ; preds = %35, %34, %32
  %36 = tail call zeroext i8 @l_Lean_isAuxRecursorWithSuffix(ptr noundef %0, ptr noundef nonnull %26, ptr noundef %27) #7
  %37 = icmp eq i8 %36, 0
  br i1 %37, label %40, label %83

lean_inc.exit.thread:                             ; preds = %25
  %38 = tail call zeroext i8 @l_Lean_isAuxRecursorWithSuffix(ptr noundef %0, ptr noundef %26, ptr noundef %27) #7
  %39 = icmp eq i8 %38, 0
  br i1 %39, label %.thread49, label %lean_dec.exit27

40:                                               ; preds = %lean_inc.exit
  %41 = load ptr, ptr @l___private_Lean_Compiler_InlineAttrs_0__Lean_Compiler_isValidMacroInline___lambda__2___closed__3, align 8, !tbaa !10
  %42 = tail call zeroext i8 @lean_name_eq(ptr noundef nonnull %26, ptr noundef %41) #7
  %43 = icmp eq i8 %42, 0
  br i1 %43, label %47, label %67

.thread49:                                        ; preds = %lean_inc.exit.thread
  %44 = load ptr, ptr @l___private_Lean_Compiler_InlineAttrs_0__Lean_Compiler_isValidMacroInline___lambda__2___closed__3, align 8, !tbaa !10
  %45 = tail call zeroext i8 @lean_name_eq(ptr noundef %26, ptr noundef %44) #7
  %46 = icmp eq i8 %45, 0
  br i1 %46, label %47, label %lean_dec.exit29

47:                                               ; preds = %.thread49, %40
  %48 = load ptr, ptr @l___private_Lean_Compiler_InlineAttrs_0__Lean_Compiler_isValidMacroInline___lambda__2___closed__5, align 8, !tbaa !10
  %49 = tail call ptr @l_Lean_Name_append(ptr noundef %1, ptr noundef %48) #7
  %50 = tail call zeroext i8 @lean_name_eq(ptr noundef %26, ptr noundef %49) #7
  %51 = ptrtoint ptr %49 to i64
  %52 = and i64 %51, 1
  %.not53 = icmp eq i64 %52, 0
  br i1 %.not53, label %53, label %lean_dec.exit31

53:                                               ; preds = %47
  %54 = load i32, ptr %49, align 4, !tbaa !4
  %55 = icmp sgt i32 %54, 1
  br i1 %55, label %56, label %58, !prof !9

56:                                               ; preds = %53
  %57 = add nsw i32 %54, -1
  store i32 %57, ptr %49, align 4, !tbaa !4
  br label %lean_dec.exit31

58:                                               ; preds = %53
  %.not.i36 = icmp eq i32 %54, 0
  br i1 %.not.i36, label %lean_dec.exit31, label %59

59:                                               ; preds = %58
  tail call void @lean_dec_ref_cold(ptr noundef nonnull %49) #7
  br label %lean_dec.exit31

lean_dec.exit31:                                  ; preds = %59, %58, %56, %47
  br i1 %.not, label %60, label %lean_dec.exit32

60:                                               ; preds = %lean_dec.exit31
  %61 = load i32, ptr %26, align 4, !tbaa !4
  %62 = icmp sgt i32 %61, 1
  br i1 %62, label %63, label %65, !prof !9

63:                                               ; preds = %60
  %64 = add nsw i32 %61, -1
  store i32 %64, ptr %26, align 4, !tbaa !4
  br label %lean_dec.exit32

65:                                               ; preds = %60
  %.not.i38 = icmp eq i32 %61, 0
  br i1 %.not.i38, label %lean_dec.exit32, label %66

66:                                               ; preds = %65
  tail call void @lean_dec_ref_cold(ptr noundef nonnull %26) #7
  br label %lean_dec.exit32

67:                                               ; preds = %40
  %68 = load i32, ptr %26, align 4, !tbaa !4
  %69 = icmp sgt i32 %68, 1
  br i1 %69, label %70, label %72, !prof !9

70:                                               ; preds = %67
  %71 = add nsw i32 %68, -1
  store i32 %71, ptr %26, align 4, !tbaa !4
  br label %lean_dec.exit29

72:                                               ; preds = %67
  %.not.i40 = icmp eq i32 %68, 0
  br i1 %.not.i40, label %lean_dec.exit29, label %73

73:                                               ; preds = %72
  tail call void @lean_dec_ref_cold(ptr noundef nonnull %26) #7
  br label %lean_dec.exit29

lean_dec.exit29:                                  ; preds = %.thread49, %73, %72, %70
  %74 = ptrtoint ptr %1 to i64
  %75 = and i64 %74, 1
  %.not52 = icmp eq i64 %75, 0
  br i1 %.not52, label %76, label %lean_dec.exit32

76:                                               ; preds = %lean_dec.exit29
  %77 = load i32, ptr %1, align 4, !tbaa !4
  %78 = icmp sgt i32 %77, 1
  br i1 %78, label %79, label %81, !prof !9

79:                                               ; preds = %76
  %80 = add nsw i32 %77, -1
  store i32 %80, ptr %1, align 4, !tbaa !4
  br label %lean_dec.exit32

81:                                               ; preds = %76
  %.not.i42 = icmp eq i32 %77, 0
  br i1 %.not.i42, label %lean_dec.exit32, label %82

82:                                               ; preds = %81
  tail call void @lean_dec_ref_cold(ptr noundef nonnull %1) #7
  br label %lean_dec.exit32

83:                                               ; preds = %lean_inc.exit
  %84 = load i32, ptr %26, align 4, !tbaa !4
  %85 = icmp sgt i32 %84, 1
  br i1 %85, label %86, label %88, !prof !9

86:                                               ; preds = %83
  %87 = add nsw i32 %84, -1
  store i32 %87, ptr %26, align 4, !tbaa !4
  br label %lean_dec.exit27

88:                                               ; preds = %83
  %.not.i44 = icmp eq i32 %84, 0
  br i1 %.not.i44, label %lean_dec.exit27, label %89

89:                                               ; preds = %88
  tail call void @lean_dec_ref_cold(ptr noundef nonnull %26) #7
  br label %lean_dec.exit27

lean_dec.exit27:                                  ; preds = %lean_inc.exit.thread, %89, %88, %86
  %90 = ptrtoint ptr %1 to i64
  %91 = and i64 %90, 1
  %.not51 = icmp eq i64 %91, 0
  br i1 %.not51, label %92, label %lean_dec.exit32

92:                                               ; preds = %lean_dec.exit27
  %93 = load i32, ptr %1, align 4, !tbaa !4
  %94 = icmp sgt i32 %93, 1
  br i1 %94, label %95, label %97, !prof !9

95:                                               ; preds = %92
  %96 = add nsw i32 %93, -1
  store i32 %96, ptr %1, align 4, !tbaa !4
  br label %lean_dec.exit32

97:                                               ; preds = %92
  %.not.i46 = icmp eq i32 %93, 0
  br i1 %.not.i46, label %lean_dec.exit32, label %98

98:                                               ; preds = %97
  tail call void @lean_dec_ref_cold(ptr noundef nonnull %1) #7
  br label %lean_dec.exit32

lean_dec.exit32:                                  ; preds = %lean_dec.exit27, %95, %97, %98, %lean_dec.exit29, %79, %81, %82, %lean_dec.exit31, %63, %65, %66, %lean_dec.exit33, %21, %23, %24
  %.0 = phi i8 [ 0, %24 ], [ 0, %23 ], [ 0, %21 ], [ 0, %lean_dec.exit33 ], [ %50, %66 ], [ %50, %65 ], [ %50, %63 ], [ %50, %lean_dec.exit31 ], [ 1, %82 ], [ 1, %81 ], [ 1, %79 ], [ 1, %lean_dec.exit29 ], [ 1, %98 ], [ 1, %97 ], [ 1, %95 ], [ 1, %lean_dec.exit27 ]
  ret i8 %.0
}